; Function Attrs: mustprogress nofree nosync nounwind memory(read, argmem: readwrite, inaccessiblemem: none) uwtable
define hidden void @_Z13eval_residualPKdS0_Pd(ptr nocapture noundef readonly %0, ptr nocapture noundef readonly %1, ptr nocapture noundef %2) local_unnamed_addr #5 {
  %4 = alloca [3 x double], align 16
  call void @llvm.memset.p0.i64(ptr noundef nonnull align 16 dereferenceable(24) %4, i8 0, i64 24, i1 false)
  br label %5

5:                                                ; preds = %3, %29
  %indvars.iv37 = phi i64 [ 0, %3 ], [ %indvars.iv.next38, %29 ]
  %6 = getelementptr inbounds [283 x double], ptr @lambda_tbl, i64 0, i64 %indvars.iv37
  %7 = load double, ptr %6, align 8
  %8 = fadd contract double %7, -3.600000e+02
  %9 = fdiv contract double %8, 4.700000e+02
  br label %10

10:                                               ; preds = %5, %10
  %indvars.iv = phi i64 [ 0, %5 ], [ %indvars.iv.next, %10 ]
  %.02627 = phi double [ 0.000000e+00, %5 ], [ %14, %10 ]
  %11 = fmul contract double %9, %.02627
  %12 = getelementptr inbounds double, ptr %0, i64 %indvars.iv
  %13 = load double, ptr %12, align 8
  %14 = fadd contract double %11, %13
  %indvars.iv.next = add nuw nsw i64 %indvars.iv, 1
  %exitcond.not = icmp eq i64 %indvars.iv.next, 3
  br i1 %exitcond.not, label %15, label %10, !llvm.loop !21

15:                                               ; preds = %10
  %16 = fmul contract double %14, 5.000000e-01
  %17 = fmul contract double %14, %14
  %18 = fadd contract double %17, 1.000000e+00
  %19 = tail call contract double @llvm.sqrt.f64(double %18)
  %20 = fdiv contract double %16, %19
  %21 = fadd contract double %20, 5.000000e-01
  br label %22

22:                                               ; preds = %15, %22
  %indvars.iv33 = phi i64 [ 0, %15 ], [ %indvars.iv.next34, %22 ]
  %23 = getelementptr inbounds [3 x [283 x double]], ptr @rgb_tbl, i64 0, i64 %indvars.iv33, i64 %indvars.iv37
  %24 = load double, ptr %23, align 8
  %25 = fmul contract double %21, %24
  %26 = getelementptr inbounds [3 x double], ptr %4, i64 0, i64 %indvars.iv33
  %27 = load double, ptr %26, align 8
  %28 = fadd contract double %27, %25
  store double %28, ptr %26, align 8
  %indvars.iv.next34 = add nuw nsw i64 %indvars.iv33, 1
  %exitcond36.not = icmp eq i64 %indvars.iv.next34, 3
  br i1 %exitcond36.not, label %29, label %22, !llvm.loop !22

29:                                               ; preds = %22
  %indvars.iv.next38 = add nuw nsw i64 %indvars.iv37, 1
  %exitcond40.not = icmp eq i64 %indvars.iv.next38, 283
  br i1 %exitcond40.not, label %30, label %5, !llvm.loop !23

30:                                               ; preds = %29
  call void @_Z7cie_labPd(ptr noundef nonnull %4)
  tail call void @llvm.memcpy.p0.p0.i64(ptr noundef nonnull align 8 dereferenceable(24) %2, ptr noundef nonnull align 8 dereferenceable(24) %1, i64 24, i1 false)
  tail call void @_Z7cie_labPd(ptr noundef %2)
  br label %31

31:                                               ; preds = %30, %31
  %indvars.iv41 = phi i64 [ 0, %30 ], [ %indvars.iv.next42, %31 ]
  %32 = getelementptr inbounds [3 x double], ptr %4, i64 0, i64 %indvars.iv41
  %33 = load double, ptr %32, align 8
  %34 = getelementptr inbounds double, ptr %2, i64 %indvars.iv41
  %35 = load double, ptr %34, align 8
  %36 = fsub contract double %35, %33
  store double %36, ptr %34, align 8
  %indvars.iv.next42 = add nuw nsw i64 %indvars.iv41, 1
  %exitcond44.not = icmp eq i64 %indvars.iv.next42, 3
  br i1 %exitcond44.not, label %37, label %31, !llvm.loop !24

37:                                               ; preds = %31
  ret void
}